; Function Attrs: mustprogress uwtable
define internal { ptr, i64 } @_ZNK12_GLOBAL__N_136FilesystemVersionDbEntryDeserializer12valid_fieldsEv(ptr nocapture nonnull readnone align 8 %0) unnamed_addr #2 align 2 personality ptr @__gxx_personality_v0 {
  %2 = load atomic i8, ptr @_ZGVZNK12_GLOBAL__N_136FilesystemVersionDbEntryDeserializer12valid_fieldsEvE6t_path acquire, align 8
  %3 = icmp eq i8 %2, 0
  br i1 %3, label %4, label %13, !prof !163

4:                                                ; preds = %1
  %5 = tail call i32 @__cxa_guard_acquire(ptr nonnull @_ZGVZNK12_GLOBAL__N_136FilesystemVersionDbEntryDeserializer12valid_fieldsEvE6t_path) #26
  %.not = icmp eq i32 %5, 0
  br i1 %.not, label %13, label %6

6:                                                ; preds = %4
  %7 = invoke { ptr, i64 } @_ZN5vcpkg27schemed_deserializer_fieldsEv()
          to label %8 unwind label %20

8:                                                ; preds = %6
  %9 = extractvalue { ptr, i64 } %7, 0
  %10 = extractvalue { ptr, i64 } %7, 1
  invoke void @_ZN5vcpkg4Util7Vectors6concatINS_10StringViewEEESt6vectorIT_SaIS5_EENS_4SpanIKS5_EESA_(ptr dead_on_unwind nonnull writable sret(%"class.std::vector.220") align 8 @_ZZNK12_GLOBAL__N_136FilesystemVersionDbEntryDeserializer12valid_fieldsEvE6t_path, ptr %9, i64 %10, ptr nonnull @_ZZNK12_GLOBAL__N_136FilesystemVersionDbEntryDeserializer12valid_fieldsEvE6u_path, i64 1)
          to label %11 unwind label %20

11:                                               ; preds = %8
  %12 = tail call i32 @__cxa_atexit(ptr nonnull @_ZNSt6vectorIN5vcpkg10StringViewESaIS1_EED2Ev, ptr nonnull @_ZZNK12_GLOBAL__N_136FilesystemVersionDbEntryDeserializer12valid_fieldsEvE6t_path, ptr nonnull @__dso_handle) #26
  tail call void @__cxa_guard_release(ptr nonnull @_ZGVZNK12_GLOBAL__N_136FilesystemVersionDbEntryDeserializer12valid_fieldsEvE6t_path) #26
  br label %13

13:                                               ; preds = %11, %4, %1
  %14 = load ptr, ptr @_ZZNK12_GLOBAL__N_136FilesystemVersionDbEntryDeserializer12valid_fieldsEvE6t_path, align 8
  %15 = load ptr, ptr getelementptr inbounds (%"class.std::vector.220", ptr @_ZZNK12_GLOBAL__N_136FilesystemVersionDbEntryDeserializer12valid_fieldsEvE6t_path, i64 0, i32 0, i32 0, i32 0, i32 1), align 8
  %16 = ptrtoint ptr %15 to i64
  %17 = ptrtoint ptr %14 to i64
  %18 = sub i64 %16, %17
  %19 = ashr exact i64 %18, 4
  %.fca.0.insert = insertvalue { ptr, i64 } poison, ptr %14, 0
  %.fca.1.insert = insertvalue { ptr, i64 } %.fca.0.insert, i64 %19, 1
  ret { ptr, i64 } %.fca.1.insert

20:                                               ; preds = %8, %6
  %21 = landingpad { ptr, i32 }
          cleanup
  tail call void @__cxa_guard_abort(ptr nonnull @_ZGVZNK12_GLOBAL__N_136FilesystemVersionDbEntryDeserializer12valid_fieldsEvE6t_path) #26
  resume { ptr, i32 } %21
}